; Function Attrs: mustprogress nounwind uwtable
define internal fastcc void @_ZN5arrow6FutureINS_8internal5EmptyEE14ThenOnCompleteIZZNS_4util12_GLOBAL__N_118AsyncTaskGroupImpl7AddTaskESt10unique_ptrINS5_18AsyncTaskScheduler4TaskESt14default_deleteISA_EEEN11WrapperTaskclEvEUlvE_NS3_17PassthruOnFailureISF_EEED2Ev(ptr nocapture noundef nonnull readonly align 8 dereferenceable(40) %this) unnamed_addr #2 align 2 personality ptr @__gxx_personality_v0 {
entry:
  %_M_refcount.i.i.i = getelementptr inbounds i8, ptr %this, i64 32
  %0 = load ptr, ptr %_M_refcount.i.i.i, align 8
  %cmp.not.i.i.i.i = icmp eq ptr %0, null
  br i1 %cmp.not.i.i.i.i, label %_ZN5arrow6FutureINS_8internal5EmptyEED2Ev.exit, label %if.then.i.i.i.i

if.then.i.i.i.i:                                  ; preds = %entry
  %_M_use_count.i.i.i.i.i = getelementptr inbounds i8, ptr %0, i64 8
  %1 = load atomic i64, ptr %_M_use_count.i.i.i.i.i acquire, align 8
  %cmp.i.i.i.i.i = icmp eq i64 %1, 4294967297
  %2 = trunc i64 %1 to i32
  br i1 %cmp.i.i.i.i.i, label %if.then.i.i.i.i.i, label %if.end.i.i.i.i.i

if.then.i.i.i.i.i:                                ; preds = %if.then.i.i.i.i
  store i32 0, ptr %_M_use_count.i.i.i.i.i, align 8
  %_M_weak_count.i.i.i.i.i = getelementptr inbounds i8, ptr %0, i64 12
  store i32 0, ptr %_M_weak_count.i.i.i.i.i, align 4
  %vtable.i.i.i.i.i = load ptr, ptr %0, align 8
  %vfn.i.i.i.i.i = getelementptr inbounds i8, ptr %vtable.i.i.i.i.i, i64 16
  %3 = load ptr, ptr %vfn.i.i.i.i.i, align 8
  tail call void %3(ptr noundef nonnull align 8 dereferenceable(16) %0) #20
  br label %if.end8.sink.split.i.i.i.i.i

if.end.i.i.i.i.i:                                 ; preds = %if.then.i.i.i.i
  %4 = load i8, ptr @__libc_single_threaded, align 1
  %tobool.i.not.i.i.i.i.i = icmp eq i8 %4, 0
  br i1 %tobool.i.not.i.i.i.i.i, label %if.else.i.i.i.i.i.i, label %if.then.i.i.i.i.i.i

if.then.i.i.i.i.i.i:                              ; preds = %if.end.i.i.i.i.i
  %add.i.i.i.i.i.i = add nsw i32 %2, -1
  store i32 %add.i.i.i.i.i.i, ptr %_M_use_count.i.i.i.i.i, align 4
  br label %_ZN9__gnu_cxx27__exchange_and_add_dispatchEPii.exit.i.i.i.i.i

if.else.i.i.i.i.i.i:                              ; preds = %if.end.i.i.i.i.i
  %5 = atomicrmw volatile add ptr %_M_use_count.i.i.i.i.i, i32 -1 acq_rel, align 4
  br label %_ZN9__gnu_cxx27__exchange_and_add_dispatchEPii.exit.i.i.i.i.i

_ZN9__gnu_cxx27__exchange_and_add_dispatchEPii.exit.i.i.i.i.i: ; preds = %if.else.i.i.i.i.i.i, %if.then.i.i.i.i.i.i
  %retval.i.0.i.i.i.i.i = phi i32 [ %2, %if.then.i.i.i.i.i.i ], [ %5, %if.else.i.i.i.i.i.i ]
  %cmp6.i.i.i.i.i = icmp eq i32 %retval.i.0.i.i.i.i.i, 1
  br i1 %cmp6.i.i.i.i.i, label %if.then7.i.i.i.i.i, label %_ZN5arrow6FutureINS_8internal5EmptyEED2Ev.exit

if.then7.i.i.i.i.i:                               ; preds = %_ZN9__gnu_cxx27__exchange_and_add_dispatchEPii.exit.i.i.i.i.i
  %vtable.i.i.i.i.i.i.i = load ptr, ptr %0, align 8
  %vfn.i.i.i.i.i.i.i = getelementptr inbounds i8, ptr %vtable.i.i.i.i.i.i.i, i64 16
  %6 = load ptr, ptr %vfn.i.i.i.i.i.i.i, align 8
  tail call void %6(ptr noundef nonnull align 8 dereferenceable(16) %0) #20
  %_M_weak_count.i.i.i.i.i.i.i = getelementptr inbounds i8, ptr %0, i64 12
  %7 = load i8, ptr @__libc_single_threaded, align 1
  %tobool.i.not.i.i.i.i.i.i.i = icmp eq i8 %7, 0
  br i1 %tobool.i.not.i.i.i.i.i.i.i, label %if.else.i.i.i.i.i.i.i.i, label %if.then.i.i.i.i.i.i.i.i

if.then.i.i.i.i.i.i.i.i:                          ; preds = %if.then7.i.i.i.i.i
  %8 = load i32, ptr %_M_weak_count.i.i.i.i.i.i.i, align 4
  %add.i.i.i.i.i.i.i.i = add nsw i32 %8, -1
  store i32 %add.i.i.i.i.i.i.i.i, ptr %_M_weak_count.i.i.i.i.i.i.i, align 4
  br label %_ZN9__gnu_cxx27__exchange_and_add_dispatchEPii.exit.i.i.i.i.i.i.i

if.else.i.i.i.i.i.i.i.i:                          ; preds = %if.then7.i.i.i.i.i
  %9 = atomicrmw volatile add ptr %_M_weak_count.i.i.i.i.i.i.i, i32 -1 acq_rel, align 4
  br label %_ZN9__gnu_cxx27__exchange_and_add_dispatchEPii.exit.i.i.i.i.i.i.i

_ZN9__gnu_cxx27__exchange_and_add_dispatchEPii.exit.i.i.i.i.i.i.i: ; preds = %if.else.i.i.i.i.i.i.i.i, %if.then.i.i.i.i.i.i.i.i
  %retval.i.0.i.i.i.i.i.i.i = phi i32 [ %8, %if.then.i.i.i.i.i.i.i.i ], [ %9, %if.else.i.i.i.i.i.i.i.i ]
  %cmp.i.i.i.i.i.i.i = icmp eq i32 %retval.i.0.i.i.i.i.i.i.i, 1
  br i1 %cmp.i.i.i.i.i.i.i, label %if.end8.sink.split.i.i.i.i.i, label %_ZN5arrow6FutureINS_8internal5EmptyEED2Ev.exit

if.end8.sink.split.i.i.i.i.i:                     ; preds = %_ZN9__gnu_cxx27__exchange_and_add_dispatchEPii.exit.i.i.i.i.i.i.i, %if.then.i.i.i.i.i
  %vtable2.i.i.i.i.i.i.i = load ptr, ptr %0, align 8
  %vfn3.i.i.i.i.i.i.i = getelementptr inbounds i8, ptr %vtable2.i.i.i.i.i.i.i, i64 24
  %10 = load ptr, ptr %vfn3.i.i.i.i.i.i.i, align 8
  tail call void %10(ptr noundef nonnull align 8 dereferenceable(16) %0) #20
  br label %_ZN5arrow6FutureINS_8internal5EmptyEED2Ev.exit

_ZN5arrow6FutureINS_8internal5EmptyEED2Ev.exit:   ; preds = %entry, %_ZN9__gnu_cxx27__exchange_and_add_dispatchEPii.exit.i.i.i.i.i, %_ZN9__gnu_cxx27__exchange_and_add_dispatchEPii.exit.i.i.i.i.i.i.i, %if.end8.sink.split.i.i.i.i.i
  %11 = getelementptr inbounds i8, ptr %this, i64 8
  %this.val = load ptr, ptr %11, align 8
  %cmp.not.i.i.i.i1 = icmp eq ptr %this.val, null
  br i1 %cmp.not.i.i.i.i1, label %_ZZZN5arrow4util12_GLOBAL__N_118AsyncTaskGroupImpl7AddTaskESt10unique_ptrINS0_18AsyncTaskScheduler4TaskESt14default_deleteIS5_EEEN11WrapperTaskclEvENUlvE_D2Ev.exit, label %if.then.i.i.i.i2

if.then.i.i.i.i2:                                 ; preds = %_ZN5arrow6FutureINS_8internal5EmptyEED2Ev.exit
  %_M_use_count.i.i.i.i.i3 = getelementptr inbounds i8, ptr %this.val, i64 8
  %12 = load atomic i64, ptr %_M_use_count.i.i.i.i.i3 acquire, align 8
  %cmp.i.i.i.i.i4 = icmp eq i64 %12, 4294967297
  %13 = trunc i64 %12 to i32
  br i1 %cmp.i.i.i.i.i4, label %if.then.i.i.i.i.i27, label %if.end.i.i.i.i.i5

if.then.i.i.i.i.i27:                              ; preds = %if.then.i.i.i.i2
  store i32 0, ptr %_M_use_count.i.i.i.i.i3, align 8
  %_M_weak_count.i.i.i.i.i28 = getelementptr inbounds i8, ptr %this.val, i64 12
  store i32 0, ptr %_M_weak_count.i.i.i.i.i28, align 4
  %vtable.i.i.i.i.i29 = load ptr, ptr %this.val, align 8
  %vfn.i.i.i.i.i30 = getelementptr inbounds i8, ptr %vtable.i.i.i.i.i29, i64 16
  %14 = load ptr, ptr %vfn.i.i.i.i.i30, align 8
  tail call void %14(ptr noundef nonnull align 8 dereferenceable(16) %this.val) #20
  br label %if.end8.sink.split.i.i.i.i.i22

if.end.i.i.i.i.i5:                                ; preds = %if.then.i.i.i.i2
  %15 = load i8, ptr @__libc_single_threaded, align 1
  %tobool.i.not.i.i.i.i.i6 = icmp eq i8 %15, 0
  br i1 %tobool.i.not.i.i.i.i.i6, label %if.else.i.i.i.i.i.i26, label %if.then.i.i.i.i.i.i7

if.then.i.i.i.i.i.i7:                             ; preds = %if.end.i.i.i.i.i5
  %add.i.i.i.i.i.i8 = add nsw i32 %13, -1
  store i32 %add.i.i.i.i.i.i8, ptr %_M_use_count.i.i.i.i.i3, align 4
  br label %_ZN9__gnu_cxx27__exchange_and_add_dispatchEPii.exit.i.i.i.i.i9

if.else.i.i.i.i.i.i26:                            ; preds = %if.end.i.i.i.i.i5
  %16 = atomicrmw volatile add ptr %_M_use_count.i.i.i.i.i3, i32 -1 acq_rel, align 4
  br label %_ZN9__gnu_cxx27__exchange_and_add_dispatchEPii.exit.i.i.i.i.i9

_ZN9__gnu_cxx27__exchange_and_add_dispatchEPii.exit.i.i.i.i.i9: ; preds = %if.else.i.i.i.i.i.i26, %if.then.i.i.i.i.i.i7
  %retval.i.0.i.i.i.i.i10 = phi i32 [ %13, %if.then.i.i.i.i.i.i7 ], [ %16, %if.else.i.i.i.i.i.i26 ]
  %cmp6.i.i.i.i.i11 = icmp eq i32 %retval.i.0.i.i.i.i.i10, 1
  br i1 %cmp6.i.i.i.i.i11, label %if.then7.i.i.i.i.i12, label %_ZZZN5arrow4util12_GLOBAL__N_118AsyncTaskGroupImpl7AddTaskESt10unique_ptrINS0_18AsyncTaskScheduler4TaskESt14default_deleteIS5_EEEN11WrapperTaskclEvENUlvE_D2Ev.exit

if.then7.i.i.i.i.i12:                             ; preds = %_ZN9__gnu_cxx27__exchange_and_add_dispatchEPii.exit.i.i.i.i.i9
  %vtable.i.i.i.i.i.i.i13 = load ptr, ptr %this.val, align 8
  %vfn.i.i.i.i.i.i.i14 = getelementptr inbounds i8, ptr %vtable.i.i.i.i.i.i.i13, i64 16
  %17 = load ptr, ptr %vfn.i.i.i.i.i.i.i14, align 8
  tail call void %17(ptr noundef nonnull align 8 dereferenceable(16) %this.val) #20
  %_M_weak_count.i.i.i.i.i.i.i15 = getelementptr inbounds i8, ptr %this.val, i64 12
  %18 = load i8, ptr @__libc_single_threaded, align 1
  %tobool.i.not.i.i.i.i.i.i.i16 = icmp eq i8 %18, 0
  br i1 %tobool.i.not.i.i.i.i.i.i.i16, label %if.else.i.i.i.i.i.i.i.i25, label %if.then.i.i.i.i.i.i.i.i17

if.then.i.i.i.i.i.i.i.i17:                        ; preds = %if.then7.i.i.i.i.i12
  %19 = load i32, ptr %_M_weak_count.i.i.i.i.i.i.i15, align 4
  %add.i.i.i.i.i.i.i.i18 = add nsw i32 %19, -1
  store i32 %add.i.i.i.i.i.i.i.i18, ptr %_M_weak_count.i.i.i.i.i.i.i15, align 4
  br label %_ZN9__gnu_cxx27__exchange_and_add_dispatchEPii.exit.i.i.i.i.i.i.i19

if.else.i.i.i.i.i.i.i.i25:                        ; preds = %if.then7.i.i.i.i.i12
  %20 = atomicrmw volatile add ptr %_M_weak_count.i.i.i.i.i.i.i15, i32 -1 acq_rel, align 4
  br label %_ZN9__gnu_cxx27__exchange_and_add_dispatchEPii.exit.i.i.i.i.i.i.i19

_ZN9__gnu_cxx27__exchange_and_add_dispatchEPii.exit.i.i.i.i.i.i.i19: ; preds = %if.else.i.i.i.i.i.i.i.i25, %if.then.i.i.i.i.i.i.i.i17
  %retval.i.0.i.i.i.i.i.i.i20 = phi i32 [ %19, %if.then.i.i.i.i.i.i.i.i17 ], [ %20, %if.else.i.i.i.i.i.i.i.i25 ]
  %cmp.i.i.i.i.i.i.i21 = icmp eq i32 %retval.i.0.i.i.i.i.i.i.i20, 1
  br i1 %cmp.i.i.i.i.i.i.i21, label %if.end8.sink.split.i.i.i.i.i22, label %_ZZZN5arrow4util12_GLOBAL__N_118AsyncTaskGroupImpl7AddTaskESt10unique_ptrINS0_18AsyncTaskScheduler4TaskESt14default_deleteIS5_EEEN11WrapperTaskclEvENUlvE_D2Ev.exit

if.end8.sink.split.i.i.i.i.i22:                   ; preds = %_ZN9__gnu_cxx27__exchange_and_add_dispatchEPii.exit.i.i.i.i.i.i.i19, %if.then.i.i.i.i.i27
  %vtable2.i.i.i.i.i.i.i23 = load ptr, ptr %this.val, align 8
  %vfn3.i.i.i.i.i.i.i24 = getelementptr inbounds i8, ptr %vtable2.i.i.i.i.i.i.i23, i64 24
  %21 = load ptr, ptr %vfn3.i.i.i.i.i.i.i24, align 8
  tail call void %21(ptr noundef nonnull align 8 dereferenceable(16) %this.val) #20
  br label %_ZZZN5arrow4util12_GLOBAL__N_118AsyncTaskGroupImpl7AddTaskESt10unique_ptrINS0_18AsyncTaskScheduler4TaskESt14default_deleteIS5_EEEN11WrapperTaskclEvENUlvE_D2Ev.exit

_ZZZN5arrow4util12_GLOBAL__N_118AsyncTaskGroupImpl7AddTaskESt10unique_ptrINS0_18AsyncTaskScheduler4TaskESt14default_deleteIS5_EEEN11WrapperTaskclEvENUlvE_D2Ev.exit: ; preds = %_ZN5arrow6FutureINS_8internal5EmptyEED2Ev.exit, %_ZN9__gnu_cxx27__exchange_and_add_dispatchEPii.exit.i.i.i.i.i9, %_ZN9__gnu_cxx27__exchange_and_add_dispatchEPii.exit.i.i.i.i.i.i.i19, %if.end8.sink.split.i.i.i.i.i22
  ret void
}